target datalayout = "e-m:e-p270:32:32-p271:32:32-p272:64:64-i64:64-i128:128-f80:128-n8:16:32:64-S128"
target triple = "x86_64-pc-linux-gnu"

%struct.control_status_msg = type { i16, i64 }

@control_time = dso_local global i64 0, align 8
@backup_inx = dso_local global i32 0, align 4

; Function Attrs: nounwind uwtable
define dso_local void @slurm_rpc_control_status(ptr noundef %0) #0 {
  %2 = alloca ptr, align 8
  %3 = alloca %struct.control_status_msg, align 8
  store ptr %0, ptr %2, align 8
  call void @llvm.lifetime.start.p0(i64 16, ptr %3) #11
  %4 = getelementptr inbounds nuw %struct.control_status_msg, ptr %3, i32 0, i32 0
  %5 = load i32, ptr @backup_inx, align 4
  %6 = trunc i32 %5 to i16
  store i16 %6, ptr %4, align 8
  %7 = getelementptr i8, ptr %3, i64 2
  call void @llvm.memset.p0.i64(ptr align 2 %7, i8 0, i64 6, i1 false)
  %8 = getelementptr inbounds nuw %struct.control_status_msg, ptr %3, i32 0, i32 1
  %9 = load i64, ptr @control_time, align 8
  store i64 %9, ptr %8, align 8
  %10 = load ptr, ptr %2, align 8
  %11 = call i32 @send_msg_response(ptr noundef %10, i32 noundef 2054, ptr noundef %3)
  call void @llvm.lifetime.end.p0(i64 16, ptr %3) #11
  ret void
}