; Function Attrs: nounwind uwtable
define dso_local void @slurm_rpc_control_status(ptr noundef %0) local_unnamed_addr #6 {
  %2 = alloca %struct.control_status_msg, align 8
  call void @llvm.lifetime.start.p0(i64 16, ptr nonnull %2) #19
  %3 = load i32, ptr @backup_inx, align 4
  %4 = trunc i32 %3 to i16
  store i16 %4, ptr %2, align 8
  %5 = getelementptr inbounds nuw i8, ptr %2, i64 2
  call void @llvm.memset.p0.i64(ptr noundef nonnull align 2 dereferenceable(6) %5, i8 0, i64 6, i1 false)
  %6 = getelementptr inbounds nuw i8, ptr %2, i64 8
  %7 = load i64, ptr @control_time, align 8
  store i64 %7, ptr %6, align 8
  %8 = call i32 @send_msg_response(ptr noundef %0, i32 noundef 2054, ptr noundef nonnull %2) #19
  call void @llvm.lifetime.end.p0(i64 16, ptr nonnull %2) #19
  ret void
}